target datalayout = "e-m:e-p270:32:32-p271:32:32-p272:64:64-i64:64-i128:128-f80:128-n8:16:32:64-S128"
target triple = "x86_64-pc-linux-gnu"

%"class.icu_77::number::impl::CompactData" = type <{ %"class.icu_77::number::impl::MultiplierProducer", [168 x ptr], [21 x i8], i8, i8, i8 }>
%"class.icu_77::number::impl::MultiplierProducer" = type { ptr }
%"class.icu_77::UObject" = type { ptr }
%"class.icu_77::UnicodeString" = type { %"class.icu_77::Replaceable", %"union.icu_77::UnicodeString::StackBufferOrFields" }
%"class.icu_77::Replaceable" = type { %"class.icu_77::UObject" }
%"union.icu_77::UnicodeString::StackBufferOrFields" = type { %struct.anon.2, [32 x i8] }
%struct.anon.2 = type { i16, i32, i32, ptr }
%"class.icu_77::number::impl::CompactHandler" = type <{ %"class.icu_77::number::impl::MicroPropsGenerator", ptr, ptr, %"class.icu_77::MaybeStackArray.0", i32, [4 x i8], %"class.icu_77::number::impl::CompactData", %"struct.icu_77::number::impl::ParsedPatternInfo", ptr, i8, [7 x i8] }>
%"class.icu_77::number::impl::MicroPropsGenerator" = type { ptr }
%"class.icu_77::MaybeStackArray.0" = type { ptr, i32, i8, [12 x %"struct.icu_77::number::impl::CompactModInfo"] }
%"struct.icu_77::number::impl::CompactModInfo" = type { ptr, ptr }
%"struct.icu_77::number::impl::ParsedPatternInfo" = type <{ %"class.icu_77::number::impl::AffixPatternProvider", %"class.icu_77::UnicodeString", %"struct.icu_77::number::impl::ParsedSubpatternInfo", %"struct.icu_77::number::impl::ParsedSubpatternInfo", %"struct.icu_77::number::impl::ParsedPatternInfo::ParserState", ptr, i8, [7 x i8] }>
%"class.icu_77::number::impl::AffixPatternProvider" = type { ptr }
%"struct.icu_77::number::impl::ParsedSubpatternInfo" = type { i64, i32, i32, i32, i32, i32, i32, i32, i32, i8, i32, i8, i32, %"class.icu_77::number::impl::DecimalQuantity", i8, i32, i8, i8, i8, i8, i8, i8, %"struct.icu_77::number::impl::Endpoints", %"struct.icu_77::number::impl::Endpoints", %"struct.icu_77::number::impl::Endpoints" }
%"class.icu_77::number::impl::DecimalQuantity" = type <{ %"class.icu_77::IFixedDecimal", i8, [3 x i8], i32, i32, i8, i8, [2 x i8], double, i32, i32, i32, i32, %union.anon, i8, i8, [6 x i8] }>
%"class.icu_77::IFixedDecimal" = type { ptr }
%union.anon = type { %struct.anon }
%struct.anon = type { ptr, i32 }
%"struct.icu_77::number::impl::Endpoints" = type { i32, i32 }
%"struct.icu_77::number::impl::ParsedPatternInfo::ParserState" = type <{ ptr, i32, [4 x i8] }>

@_ZTVN6icu_776number4impl17ParsedPatternInfoE = external unnamed_addr constant { [14 x ptr] }, align 8

; Function Attrs: mustprogress uwtable
define linkonce_odr void @_ZN6icu_7715MaybeStackArrayINS_6number4impl14CompactModInfoELi12EE12releaseArrayEv(ptr noundef nonnull align 8 dereferenceable(208) %0) #1 comdat align 2 {
  %2 = alloca ptr, align 8
  store ptr %0, ptr %2, align 8, !tbaa !119
  %3 = load ptr, ptr %2, align 8
  %4 = getelementptr inbounds nuw %"class.icu_77::MaybeStackArray.0", ptr %3, i32 0, i32 2
  %5 = load i8, ptr %4, align 4, !tbaa !123
  %6 = icmp ne i8 %5, 0
  br i1 %6, label %7, label %10

7:                                                ; preds = %1
  %8 = getelementptr inbounds nuw %"class.icu_77::MaybeStackArray.0", ptr %3, i32 0, i32 0
  %9 = load ptr, ptr %8, align 8, !tbaa !121
  call void @uprv_free_77(ptr noundef %9)
  br label %10

10:                                               ; preds = %7, %1
  ret void
}

; Function Attrs: inlinehint mustprogress nounwind uwtable
define linkonce_odr void @_ZN6icu_776number4impl20ParsedSubpatternInfoD2Ev(ptr noundef nonnull align 8 dereferenceable(168) %0) unnamed_addr #2 comdat align 2 {
  %2 = alloca ptr, align 8
  store ptr %0, ptr %2, align 8, !tbaa !188
  %3 = load ptr, ptr %2, align 8
  %4 = getelementptr inbounds nuw %"struct.icu_77::number::impl::ParsedSubpatternInfo", ptr %3, i32 0, i32 13
  call void @_ZN6icu_776number4impl15DecimalQuantityD1Ev(ptr noundef nonnull align 8 dereferenceable(66) %4) #14
  ret void
}

; Function Attrs: mustprogress nounwind uwtable
define linkonce_odr void @_ZN6icu_776number4impl19MicroPropsGeneratorD2Ev(ptr noundef nonnull align 8 dereferenceable(8) %0) unnamed_addr #0 comdat align 2 {
  %2 = alloca ptr, align 8
  store ptr %0, ptr %2, align 8, !tbaa !95
  ret void
}

; Function Attrs: mustprogress nounwind uwtable
define linkonce_odr void @_ZN6icu_7715MaybeStackArrayINS_6number4impl14CompactModInfoELi12EED2Ev(ptr noundef nonnull align 8 dereferenceable(208) %0) unnamed_addr #0 comdat align 2 personality ptr @__gxx_personality_v0 {
  %2 = alloca ptr, align 8
  store ptr %0, ptr %2, align 8, !tbaa !119
  %3 = load ptr, ptr %2, align 8
  invoke void @_ZN6icu_7715MaybeStackArrayINS_6number4impl14CompactModInfoELi12EE12releaseArrayEv(ptr noundef nonnull align 8 dereferenceable(208) %3)
          to label %4 unwind label %5

4:                                                ; preds = %1
  ret void

5:                                                ; preds = %1
  %6 = landingpad { ptr, i32 }
          catch ptr null
  %7 = extractvalue { ptr, i32 } %6, 0
  call void @__clang_call_terminate(ptr %7) #16
  unreachable
}

; Function Attrs: mustprogress nounwind uwtable
define linkonce_odr void @_ZN6icu_776number4impl17ParsedPatternInfoD2Ev(ptr noundef nonnull align 8 dereferenceable(433) %0) unnamed_addr #0 comdat align 2 {
  %2 = alloca ptr, align 8
  store ptr %0, ptr %2, align 8, !tbaa !124
  %3 = load ptr, ptr %2, align 8
  store ptr getelementptr inbounds inrange(-16, 96) ({ [14 x ptr] }, ptr @_ZTVN6icu_776number4impl17ParsedPatternInfoE, i32 0, i32 0, i32 2), ptr %3, align 8, !tbaa !25
  %4 = getelementptr inbounds nuw %"struct.icu_77::number::impl::ParsedPatternInfo", ptr %3, i32 0, i32 3
  call void @_ZN6icu_776number4impl20ParsedSubpatternInfoD2Ev(ptr noundef nonnull align 8 dereferenceable(168) %4) #14
  %5 = getelementptr inbounds nuw %"struct.icu_77::number::impl::ParsedPatternInfo", ptr %3, i32 0, i32 2
  call void @_ZN6icu_776number4impl20ParsedSubpatternInfoD2Ev(ptr noundef nonnull align 8 dereferenceable(168) %5) #14
  %6 = getelementptr inbounds nuw %"struct.icu_77::number::impl::ParsedPatternInfo", ptr %3, i32 0, i32 1
  call void @_ZN6icu_7713UnicodeStringD1Ev(ptr noundef nonnull align 8 dereferenceable(64) %6) #14
  call void @_ZN6icu_776number4impl20AffixPatternProviderD2Ev(ptr noundef nonnull align 8 dereferenceable(8) %3) #14
  ret void
}

; Function Attrs: mustprogress nounwind uwtable
define linkonce_odr noundef nonnull align 8 dereferenceable(16) ptr @_ZN6icu_7715MaybeStackArrayINS_6number4impl14CompactModInfoELi12EEixEl(ptr noundef nonnull align 8 dereferenceable(208) %0, i64 noundef %1) #0 comdat align 2 {
  %3 = alloca ptr, align 8
  %4 = alloca i64, align 8
  store ptr %0, ptr %3, align 8, !tbaa !119
  store i64 %1, ptr %4, align 8, !tbaa !18
  %5 = load ptr, ptr %3, align 8
  %6 = getelementptr inbounds nuw %"class.icu_77::MaybeStackArray.0", ptr %5, i32 0, i32 0
  %7 = load ptr, ptr %6, align 8, !tbaa !121
  %8 = load i64, ptr %4, align 8, !tbaa !18
  %9 = getelementptr inbounds %"struct.icu_77::number::impl::CompactModInfo", ptr %7, i64 %8
  ret ptr %9
}

; Function Attrs: mustprogress nounwind uwtable
define void @_ZN6icu_776number4impl14CompactHandlerD2Ev(ptr noundef nonnull align 8 dereferenceable(2065) %0) unnamed_addr #0 align 2 personality ptr @__gxx_personality_v0 {
  %2 = alloca ptr, align 8
  %3 = alloca i32, align 4
  store ptr %0, ptr %2, align 8, !tbaa !91
  %4 = load ptr, ptr %2, align 8
  store ptr getelementptr inbounds inrange(-16, 24) ({ [5 x ptr] }, ptr @_ZTVN6icu_776number4impl14CompactHandlerE, i32 0, i32 0, i32 2), ptr %4, align 8, !tbaa !25
  call void @llvm.lifetime.start.p0(i64 4, ptr %3) #14
  store i32 0, ptr %3, align 4, !tbaa !14
  br label %5

5:                                                ; preds = %25, %1
  %6 = load i32, ptr %3, align 4, !tbaa !14
  %7 = getelementptr inbounds nuw %"class.icu_77::number::impl::CompactHandler", ptr %4, i32 0, i32 4
  %8 = load i32, ptr %7, align 8, !tbaa !116
  %9 = icmp slt i32 %6, %8
  br i1 %9, label %11, label %10

10:                                               ; preds = %5
  call void @llvm.lifetime.end.p0(i64 4, ptr %3) #14
  br label %28

11:                                               ; preds = %5
  %12 = getelementptr inbounds nuw %"class.icu_77::number::impl::CompactHandler", ptr %4, i32 0, i32 3
  %13 = load i32, ptr %3, align 4, !tbaa !14
  %14 = sext i32 %13 to i64
  %15 = invoke noundef nonnull align 8 dereferenceable(16) ptr @_ZN6icu_7715MaybeStackArrayINS_6number4impl14CompactModInfoELi12EEixEl(ptr noundef nonnull align 8 dereferenceable(208) %12, i64 noundef %14)
          to label %16 unwind label %32

16:                                               ; preds = %11
  %17 = getelementptr inbounds nuw %"struct.icu_77::number::impl::CompactModInfo", ptr %15, i32 0, i32 0
  %18 = load ptr, ptr %17, align 8, !tbaa !129
  %19 = icmp eq ptr %18, null
  br i1 %19, label %24, label %20

20:                                               ; preds = %16
  %21 = load ptr, ptr %18, align 8, !tbaa !25
  %22 = getelementptr inbounds ptr, ptr %21, i64 1
  %23 = load ptr, ptr %22, align 8
  call void %23(ptr noundef nonnull align 8 dereferenceable(32) %18) #14
  br label %24

24:                                               ; preds = %20, %16
  br label %25

25:                                               ; preds = %24
  %26 = load i32, ptr %3, align 4, !tbaa !14
  %27 = add nsw i32 %26, 1
  store i32 %27, ptr %3, align 4, !tbaa !14
  br label %5, !llvm.loop !134

28:                                               ; preds = %10
  %29 = getelementptr inbounds nuw %"class.icu_77::number::impl::CompactHandler", ptr %4, i32 0, i32 7
  call void @_ZN6icu_776number4impl17ParsedPatternInfoD2Ev(ptr noundef nonnull align 8 dereferenceable(433) %29) #14
  %30 = getelementptr inbounds nuw %"class.icu_77::number::impl::CompactHandler", ptr %4, i32 0, i32 6
  call void @_ZN6icu_776number4impl18MultiplierProducerD2Ev(ptr noundef nonnull align 8 dereferenceable(1375) %30) #14
  %31 = getelementptr inbounds nuw %"class.icu_77::number::impl::CompactHandler", ptr %4, i32 0, i32 3
  call void @_ZN6icu_7715MaybeStackArrayINS_6number4impl14CompactModInfoELi12EED2Ev(ptr noundef nonnull align 8 dereferenceable(208) %31) #14
  call void @_ZN6icu_776number4impl19MicroPropsGeneratorD2Ev(ptr noundef nonnull align 8 dereferenceable(8) %4) #14
  ret void

32:                                               ; preds = %11
  %33 = landingpad { ptr, i32 }
          catch ptr null
  %34 = extractvalue { ptr, i32 } %33, 0
  call void @__clang_call_terminate(ptr %34) #16
  unreachable
}