; Function Attrs: mustprogress nounwind uwtable
define void @_ZN6icu_776number4impl14CompactHandlerD2Ev(ptr noundef nonnull align 8 dereferenceable(2065) initializes((0, 8)) %0) unnamed_addr #0 align 2 personality ptr @__gxx_personality_v0 {
  store ptr getelementptr inbounds nuw inrange(-16, 24) (i8, ptr @_ZTVN6icu_776number4impl14CompactHandlerE, i64 16), ptr %0, align 8, !tbaa !15
  %2 = getelementptr inbounds nuw i8, ptr %0, i64 232
  %3 = load i32, ptr %2, align 8, !tbaa !75
  %4 = icmp sgt i32 %3, 0
  br i1 %4, label %.lr.ph, label %._crit_edge

.lr.ph:                                           ; preds = %1
  %5 = getelementptr inbounds nuw i8, ptr %0, i64 24
  br label %19

._crit_edge:                                      ; preds = %29, %1
  %6 = getelementptr inbounds nuw i8, ptr %0, i64 1616
  store ptr getelementptr inbounds nuw inrange(-16, 96) (i8, ptr @_ZTVN6icu_776number4impl17ParsedPatternInfoE, i64 16), ptr %6, align 8, !tbaa !15
  %7 = getelementptr inbounds nuw i8, ptr %0, i64 1912
  tail call void @_ZN6icu_776number4impl15DecimalQuantityD1Ev(ptr noundef nonnull align 8 dereferenceable(66) %7) #17
  %8 = getelementptr inbounds nuw i8, ptr %0, i64 1744
  tail call void @_ZN6icu_776number4impl15DecimalQuantityD1Ev(ptr noundef nonnull align 8 dereferenceable(66) %8) #17
  %9 = getelementptr inbounds nuw i8, ptr %0, i64 1624
  tail call void @_ZN6icu_7713UnicodeStringD1Ev(ptr noundef nonnull align 8 dereferenceable(64) %9) #17
  tail call void @_ZN6icu_776number4impl20AffixPatternProviderD2Ev(ptr noundef nonnull align 8 dereferenceable(433) %6) #17
  %10 = getelementptr inbounds nuw i8, ptr %0, i64 240
  tail call void @_ZN6icu_776number4impl18MultiplierProducerD2Ev(ptr noundef nonnull align 8 dereferenceable(1375) %10) #17
  %11 = getelementptr inbounds nuw i8, ptr %0, i64 36
  %12 = load i8, ptr %11, align 4, !tbaa !74
  %.not.i.i = icmp eq i8 %12, 0
  br i1 %.not.i.i, label %_ZN6icu_7715MaybeStackArrayINS_6number4impl14CompactModInfoELi12EED2Ev.exit, label %13

13:                                               ; preds = %._crit_edge
  %14 = getelementptr inbounds nuw i8, ptr %0, i64 24
  %15 = load ptr, ptr %14, align 8, !tbaa !72
  invoke void @uprv_free_77(ptr noundef %15)
          to label %_ZN6icu_7715MaybeStackArrayINS_6number4impl14CompactModInfoELi12EED2Ev.exit unwind label %16

16:                                               ; preds = %13
  %17 = landingpad { ptr, i32 }
          catch ptr null
  %18 = extractvalue { ptr, i32 } %17, 0
  tail call void @__clang_call_terminate(ptr %18) #19
  unreachable

_ZN6icu_7715MaybeStackArrayINS_6number4impl14CompactModInfoELi12EED2Ev.exit: ; preds = %._crit_edge, %13
  ret void

19:                                               ; preds = %.lr.ph, %29
  %20 = phi i32 [ %3, %.lr.ph ], [ %30, %29 ]
  %indvars.iv = phi i64 [ 0, %.lr.ph ], [ %indvars.iv.next, %29 ]
  %21 = load ptr, ptr %5, align 8, !tbaa !72
  %22 = getelementptr inbounds nuw %"struct.icu_77::number::impl::CompactModInfo", ptr %21, i64 %indvars.iv
  %23 = load ptr, ptr %22, align 8, !tbaa !88
  %24 = icmp eq ptr %23, null
  br i1 %24, label %29, label %25

25:                                               ; preds = %19
  %26 = load ptr, ptr %23, align 8, !tbaa !15
  %27 = getelementptr inbounds nuw i8, ptr %26, i64 8
  %28 = load ptr, ptr %27, align 8
  tail call void %28(ptr noundef nonnull align 8 dereferenceable(32) %23) #17
  %.pre = load i32, ptr %2, align 8, !tbaa !75
  br label %29

29:                                               ; preds = %19, %25
  %30 = phi i32 [ %20, %19 ], [ %.pre, %25 ]
  %indvars.iv.next = add nuw nsw i64 %indvars.iv, 1
  %31 = sext i32 %30 to i64
  %32 = icmp slt i64 %indvars.iv.next, %31
  br i1 %32, label %19, label %._crit_edge, !llvm.loop !93
}